#include <math.h>
#include <stdio.h>
#include <stdlib.h>
#include <string.h>
#include <iostream>
using namespace std;

/*
 * ????main.cpp
 * ??????
 * ?????2012-12-17
 * ?????????????N(N<=100)???2?N?????
 */


int main ()
{
	int N,i,j,k;//??????N??????N???????i,j,k
	char a[50];//????a????????
	memset(a,0,sizeof(a));//???
	cin >> N;
	if ( N >= 1 )//???
		a[0] = '2';
	else 
		a[0] = '1';
	j = 0;
	for ( i = 2; i <= N; i++ ) //?N >= 2??????????
	{
		k = 0;//??????????
		for ( j = 0; a[j]; j++ )//?????????????a[0]????
		{
			a[j] = ((a[j] - '0') * 2) + k + '0';
			k = 0;//???
			if ( a[j] > '9' )//??????
			{
				a[j] -= 10;
				k = 1;
			}
		}
		if ( k == 1 )//??????
			a[j] = '1';
	}
	if ( a[j] )//??a[j]?????
		cout << a[j];
	for ( j -= 1; j >= 0; j-- )//????????
		cout << a[j];
	cout << endl;
	return 0;
}